target datalayout = "e-m:e-p270:32:32-p271:32:32-p272:64:64-i64:64-i128:128-f80:128-n8:16:32:64-S128"
target triple = "x86_64-pc-linux-gnu"

%"class.std::vector" = type { %"struct.std::_Vector_base" }
%"struct.std::_Vector_base" = type { %"struct.std::_Vector_base<const char *, std::allocator<const char *>>::_Vector_impl" }
%"struct.std::_Vector_base<const char *, std::allocator<const char *>>::_Vector_impl" = type { %"struct.std::_Vector_base<const char *, std::allocator<const char *>>::_Vector_impl_data" }
%"struct.std::_Vector_base<const char *, std::allocator<const char *>>::_Vector_impl_data" = type { ptr, ptr, ptr }

@_ZL5g_col = internal global %"class.std::vector" zeroinitializer, align 8
@.str = private unnamed_addr constant [1 x i8] zeroinitializer, align 1
@.str.10 = private unnamed_addr constant [5 x i8] c"\1B[0m\00", align 1
@.str.11 = private unnamed_addr constant [5 x i8] c"\1B[1m\00", align 1
@.str.12 = private unnamed_addr constant [6 x i8] c"\1B[31m\00", align 1
@.str.13 = private unnamed_addr constant [6 x i8] c"\1B[32m\00", align 1
@.str.14 = private unnamed_addr constant [6 x i8] c"\1B[33m\00", align 1
@.str.15 = private unnamed_addr constant [6 x i8] c"\1B[34m\00", align 1
@.str.16 = private unnamed_addr constant [6 x i8] c"\1B[35m\00", align 1
@.str.17 = private unnamed_addr constant [6 x i8] c"\1B[36m\00", align 1
@.str.18 = private unnamed_addr constant [6 x i8] c"\1B[37m\00", align 1

; Function Attrs: mustprogress nounwind uwtable
define linkonce_odr noundef i64 @_ZNKSt6vectorIPKcSaIS1_EE4sizeEv(ptr noundef nonnull align 8 dereferenceable(24) %0) #0 comdat align 2 {
  %2 = alloca ptr, align 8
  store ptr %0, ptr %2, align 8, !tbaa !18
  %3 = load ptr, ptr %2, align 8
  %4 = getelementptr inbounds nuw %"struct.std::_Vector_base", ptr %3, i32 0, i32 0
  %5 = getelementptr inbounds nuw %"struct.std::_Vector_base<const char *, std::allocator<const char *>>::_Vector_impl_data", ptr %4, i32 0, i32 1
  %6 = load ptr, ptr %5, align 8, !tbaa !22
  %7 = getelementptr inbounds nuw %"struct.std::_Vector_base", ptr %3, i32 0, i32 0
  %8 = getelementptr inbounds nuw %"struct.std::_Vector_base<const char *, std::allocator<const char *>>::_Vector_impl_data", ptr %7, i32 0, i32 0
  %9 = load ptr, ptr %8, align 8, !tbaa !20
  %10 = ptrtoint ptr %6 to i64
  %11 = ptrtoint ptr %9 to i64
  %12 = sub i64 %10, %11
  %13 = sdiv exact i64 %12, 8
  ret i64 %13
}

; Function Attrs: mustprogress nounwind uwtable
define linkonce_odr noundef nonnull align 8 dereferenceable(8) ptr @_ZNSt6vectorIPKcSaIS1_EEixEm(ptr noundef nonnull align 8 dereferenceable(24) %0, i64 noundef %1) #0 comdat align 2 {
  %3 = alloca ptr, align 8
  %4 = alloca i64, align 8
  store ptr %0, ptr %3, align 8, !tbaa !18
  store i64 %1, ptr %4, align 8, !tbaa !60
  %5 = load ptr, ptr %3, align 8
  %6 = getelementptr inbounds nuw %"struct.std::_Vector_base", ptr %5, i32 0, i32 0
  %7 = getelementptr inbounds nuw %"struct.std::_Vector_base<const char *, std::allocator<const char *>>::_Vector_impl_data", ptr %6, i32 0, i32 0
  %8 = load ptr, ptr %7, align 8, !tbaa !20
  %9 = load i64, ptr %4, align 8, !tbaa !60
  %10 = getelementptr inbounds nuw ptr, ptr %8, i64 %9
  ret ptr %10
}

; Function Attrs: mustprogress uwtable
define linkonce_odr void @_ZN10common_log10set_colorsEb(ptr noundef nonnull align 8 dereferenceable(208) %0, i1 noundef zeroext %1) #4 comdat align 2 {
  %3 = alloca ptr, align 8
  %4 = alloca i8, align 1
  %5 = alloca i64, align 8
  store ptr %0, ptr %3, align 8, !tbaa !23
  %6 = zext i1 %1 to i8
  store i8 %6, ptr %4, align 1, !tbaa !71
  %7 = load ptr, ptr %3, align 8
  call void @_ZN10common_log5pauseEv(ptr noundef nonnull align 8 dereferenceable(208) %7)
  %8 = load i8, ptr %4, align 1, !tbaa !71, !range !49, !noundef !50
  %9 = trunc i8 %8 to i1
  br i1 %9, label %10, label %20

10:                                               ; preds = %2
  %11 = call noundef nonnull align 8 dereferenceable(8) ptr @_ZNSt6vectorIPKcSaIS1_EEixEm(ptr noundef nonnull align 8 dereferenceable(24) @_ZL5g_col, i64 noundef 0) #5
  store ptr @.str.10, ptr %11, align 8, !tbaa !57
  %12 = call noundef nonnull align 8 dereferenceable(8) ptr @_ZNSt6vectorIPKcSaIS1_EEixEm(ptr noundef nonnull align 8 dereferenceable(24) @_ZL5g_col, i64 noundef 1) #5
  store ptr @.str.11, ptr %12, align 8, !tbaa !57
  %13 = call noundef nonnull align 8 dereferenceable(8) ptr @_ZNSt6vectorIPKcSaIS1_EEixEm(ptr noundef nonnull align 8 dereferenceable(24) @_ZL5g_col, i64 noundef 2) #5
  store ptr @.str.12, ptr %13, align 8, !tbaa !57
  %14 = call noundef nonnull align 8 dereferenceable(8) ptr @_ZNSt6vectorIPKcSaIS1_EEixEm(ptr noundef nonnull align 8 dereferenceable(24) @_ZL5g_col, i64 noundef 3) #5
  store ptr @.str.13, ptr %14, align 8, !tbaa !57
  %15 = call noundef nonnull align 8 dereferenceable(8) ptr @_ZNSt6vectorIPKcSaIS1_EEixEm(ptr noundef nonnull align 8 dereferenceable(24) @_ZL5g_col, i64 noundef 4) #5
  store ptr @.str.14, ptr %15, align 8, !tbaa !57
  %16 = call noundef nonnull align 8 dereferenceable(8) ptr @_ZNSt6vectorIPKcSaIS1_EEixEm(ptr noundef nonnull align 8 dereferenceable(24) @_ZL5g_col, i64 noundef 5) #5
  store ptr @.str.15, ptr %16, align 8, !tbaa !57
  %17 = call noundef nonnull align 8 dereferenceable(8) ptr @_ZNSt6vectorIPKcSaIS1_EEixEm(ptr noundef nonnull align 8 dereferenceable(24) @_ZL5g_col, i64 noundef 6) #5
  store ptr @.str.16, ptr %17, align 8, !tbaa !57
  %18 = call noundef nonnull align 8 dereferenceable(8) ptr @_ZNSt6vectorIPKcSaIS1_EEixEm(ptr noundef nonnull align 8 dereferenceable(24) @_ZL5g_col, i64 noundef 7) #5
  store ptr @.str.17, ptr %18, align 8, !tbaa !57
  %19 = call noundef nonnull align 8 dereferenceable(8) ptr @_ZNSt6vectorIPKcSaIS1_EEixEm(ptr noundef nonnull align 8 dereferenceable(24) @_ZL5g_col, i64 noundef 8) #5
  store ptr @.str.18, ptr %19, align 8, !tbaa !57
  br label %33

20:                                               ; preds = %2
  call void @llvm.lifetime.start.p0(i64 8, ptr %5) #5
  store i64 0, ptr %5, align 8, !tbaa !60
  br label %21

21:                                               ; preds = %29, %20
  %22 = load i64, ptr %5, align 8, !tbaa !60
  %23 = call noundef i64 @_ZNKSt6vectorIPKcSaIS1_EE4sizeEv(ptr noundef nonnull align 8 dereferenceable(24) @_ZL5g_col) #5
  %24 = icmp ult i64 %22, %23
  br i1 %24, label %26, label %25

25:                                               ; preds = %21
  call void @llvm.lifetime.end.p0(i64 8, ptr %5) #5
  br label %32

26:                                               ; preds = %21
  %27 = load i64, ptr %5, align 8, !tbaa !60
  %28 = call noundef nonnull align 8 dereferenceable(8) ptr @_ZNSt6vectorIPKcSaIS1_EEixEm(ptr noundef nonnull align 8 dereferenceable(24) @_ZL5g_col, i64 noundef %27) #5
  store ptr @.str, ptr %28, align 8, !tbaa !57
  br label %29

29:                                               ; preds = %26
  %30 = load i64, ptr %5, align 8, !tbaa !60
  %31 = add i64 %30, 1
  store i64 %31, ptr %5, align 8, !tbaa !60
  br label %21, !llvm.loop !72

32:                                               ; preds = %25
  br label %33

33:                                               ; preds = %32, %10
  call void @_ZN10common_log6resumeEv(ptr noundef nonnull align 8 dereferenceable(208) %7)
  ret void
}

; Function Attrs: mustprogress uwtable
define void @_Z21common_log_set_colorsP10common_logb(ptr noundef %0, i1 noundef zeroext %1) #4 {
  %3 = alloca ptr, align 8
  %4 = alloca i8, align 1
  store ptr %0, ptr %3, align 8, !tbaa !23
  %5 = zext i1 %1 to i8
  store i8 %5, ptr %4, align 1, !tbaa !71
  %6 = load ptr, ptr %3, align 8, !tbaa !23
  %7 = load i8, ptr %4, align 1, !tbaa !71, !range !49, !noundef !50
  %8 = trunc i8 %7 to i1
  call void @_ZN10common_log10set_colorsEb(ptr noundef nonnull align 8 dereferenceable(208) %6, i1 noundef zeroext %8)
  ret void
}