; Function Attrs: mustprogress uwtable
define void @_Z21common_log_set_colorsP10common_logb(ptr noundef nonnull %0, i1 noundef zeroext %1) local_unnamed_addr #5 {
  tail call void @_ZN10common_log5pauseEv(ptr noundef nonnull align 8 dereferenceable(208) %0)
  br i1 %1, label %9, label %.preheader.i

.preheader.i:                                     ; preds = %2
  %3 = load ptr, ptr getelementptr inbounds nuw (i8, ptr @_ZL5g_col, i64 8), align 8, !tbaa !67
  %4 = load ptr, ptr @_ZL5g_col, align 8, !tbaa !7
  %.not.i = icmp eq ptr %3, %4
  br i1 %.not.i, label %_ZN10common_log10set_colorsEb.exit, label %.lr.ph.preheader.i

.lr.ph.preheader.i:                               ; preds = %.preheader.i
  %5 = ptrtoint ptr %3 to i64
  %6 = ptrtoint ptr %4 to i64
  %7 = sub i64 %5, %6
  %8 = ashr exact i64 %7, 3
  %umax.i = tail call i64 @llvm.umax.i64(i64 %8, i64 1)
  br label %.lr.ph.i

9:                                                ; preds = %2
  %10 = load ptr, ptr @_ZL5g_col, align 8, !tbaa !7
  store ptr @.str.10, ptr %10, align 8, !tbaa !68
  %11 = getelementptr inbounds nuw i8, ptr %10, i64 8
  store ptr @.str.11, ptr %11, align 8, !tbaa !68
  %12 = getelementptr inbounds nuw i8, ptr %10, i64 16
  store ptr @.str.12, ptr %12, align 8, !tbaa !68
  %13 = getelementptr inbounds nuw i8, ptr %10, i64 24
  store ptr @.str.13, ptr %13, align 8, !tbaa !68
  %14 = getelementptr inbounds nuw i8, ptr %10, i64 32
  store ptr @.str.14, ptr %14, align 8, !tbaa !68
  %15 = getelementptr inbounds nuw i8, ptr %10, i64 40
  store ptr @.str.15, ptr %15, align 8, !tbaa !68
  %16 = getelementptr inbounds nuw i8, ptr %10, i64 48
  store ptr @.str.16, ptr %16, align 8, !tbaa !68
  %17 = getelementptr inbounds nuw i8, ptr %10, i64 56
  store ptr @.str.17, ptr %17, align 8, !tbaa !68
  %18 = getelementptr inbounds nuw i8, ptr %10, i64 64
  store ptr @.str.18, ptr %18, align 8, !tbaa !68
  br label %_ZN10common_log10set_colorsEb.exit

.lr.ph.i:                                         ; preds = %.lr.ph.i, %.lr.ph.preheader.i
  %.04.i = phi i64 [ %20, %.lr.ph.i ], [ 0, %.lr.ph.preheader.i ]
  %19 = getelementptr inbounds nuw ptr, ptr %4, i64 %.04.i
  store ptr @.str, ptr %19, align 8, !tbaa !68
  %20 = add nuw i64 %.04.i, 1
  %exitcond.not.i = icmp eq i64 %20, %umax.i
  br i1 %exitcond.not.i, label %_ZN10common_log10set_colorsEb.exit, label %.lr.ph.i, !llvm.loop !69

_ZN10common_log10set_colorsEb.exit:               ; preds = %.lr.ph.i, %.preheader.i, %9
  tail call void @_ZN10common_log6resumeEv(ptr noundef nonnull align 8 dereferenceable(208) %0)
  ret void
}